ARM GAS  C:\Users\HASHIM~1\AppData\Local\Temp\ccMDxnPs.s 			page 1


   1              		.cpu cortex-m0
   2              		.fpu softvfp
   3              		.eabi_attribute 20, 1
   4              		.eabi_attribute 21, 1
   5              		.eabi_attribute 23, 3
   6              		.eabi_attribute 24, 1
   7              		.eabi_attribute 25, 1
   8              		.eabi_attribute 26, 1
   9              		.eabi_attribute 30, 6
  10              		.eabi_attribute 34, 0
  11              		.eabi_attribute 18, 4
  12              		.code	16
  13              		.file	"main.c"
  14              		.text
  15              	.Ltext0:
  16              		.cfi_sections	.debug_frame
  17              		.global	__aeabi_i2d
  18              		.global	__aeabi_dmul
  19              		.global	__aeabi_d2uiz
  20              		.section	.text.main,"ax",%progbits
  21              		.align	2
  22              		.global	main
  23              		.code	16
  24              		.thumb_func
  25              		.type	main, %function
  26              	main:
  27              	.LFB33:
  28              		.file 1 ".\\main.c"
   1:.\main.c      **** /******************************************************************************
   2:.\main.c      **** * Project Name		: Bootloadable Blinking LED
   3:.\main.c      **** * File Name			: main.c
   4:.\main.c      **** * Version 			: 1.0
   5:.\main.c      **** * Device Used		: CY8C4245AXI-483
   6:.\main.c      **** * Software Used		: PSoC Creator 3.1
   7:.\main.c      **** * Compiler    		: ARMGCC 4.8.4, ARM RVDS Generic, ARM MDK Generic
   8:.\main.c      **** * Related Hardware	: CY8CKIT-049-42xx PSoC 4 Prototyping Kit 
   9:.\main.c      **** *
  10:.\main.c      **** ********************************************************************************
  11:.\main.c      **** * Copyright (2015), Cypress Semiconductor Corporation. All Rights Reserved.
  12:.\main.c      **** ********************************************************************************
  13:.\main.c      **** * This software is owned by Cypress Semiconductor Corporation (Cypress)
  14:.\main.c      **** * and is protected by and subject to worldwide patent protection (United
  15:.\main.c      **** * States and foreign), United States copyright laws and international treaty
  16:.\main.c      **** * provisions. Cypress hereby grants to licensee a personal, non-exclusive,
  17:.\main.c      **** * non-transferable license to copy, use, modify, create derivative works of,
  18:.\main.c      **** * and compile the Cypress Source Code and derivative works for the sole
  19:.\main.c      **** * purpose of creating custom software in support of licensee product to be
  20:.\main.c      **** * used only in conjunction with a Cypress integrated circuit as specified in
  21:.\main.c      **** * the applicable agreement. Any reproduction, modification, translation,
  22:.\main.c      **** * compilation, or representation of this software except as specified above 
  23:.\main.c      **** * is prohibited without the express written permission of Cypress.
  24:.\main.c      **** *
  25:.\main.c      **** * Disclaimer: CYPRESS MAKES NO WARRANTY OF ANY KIND, EXPRESS OR IMPLIED, WITH 
  26:.\main.c      **** * REGARD TO THIS MATERIAL, INCLUDING, BUT NOT LIMITED TO, THE IMPLIED 
  27:.\main.c      **** * WARRANTIES OF MERCHANTABILITY AND FITNESS FOR A PARTICULAR PURPOSE.
  28:.\main.c      **** * Cypress reserves the right to make changes without further notice to the 
  29:.\main.c      **** * materials described herein. Cypress does not assume any liability arising out 
ARM GAS  C:\Users\HASHIM~1\AppData\Local\Temp\ccMDxnPs.s 			page 2


  30:.\main.c      **** * of the application or use of any product or circuit described herein. Cypress 
  31:.\main.c      **** * does not authorize its products for use as critical components in life-support 
  32:.\main.c      **** * systems where a malfunction or failure may reasonably be expected to result in 
  33:.\main.c      **** * significant injury to the user. The inclusion of Cypress' product in a life-
  34:.\main.c      **** * support systems application implies that the manufacturer assumes all risk of 
  35:.\main.c      **** * such use and in doing so indemnifies Cypress against all charges. 
  36:.\main.c      **** *
  37:.\main.c      **** * Use of this Software may be limited by and subject to the applicable Cypress
  38:.\main.c      **** * software license agreement. 
  39:.\main.c      **** *******************************************************************************/
  40:.\main.c      **** 
  41:.\main.c      **** /******************************************************************************
  42:.\main.c      **** *                           THEORY OF OPERATION
  43:.\main.c      **** * This is a blinking LED project. A PWM component drives the pin to blink the 
  44:.\main.c      **** * LED at regular intervals. This project contains a bootloadable component so 
  45:.\main.c      **** * that it can be bootloaded into PSoC 4 which has a bootloader already programmed 
  46:.\main.c      **** * into it.
  47:.\main.c      **** * Default UART Port Configuration for bootloading the PSoC 4 in CY8CKIT-049-42xx
  48:.\main.c      **** * Baud Rate : 115200 bps
  49:.\main.c      **** * Data Bits : 8
  50:.\main.c      **** * Stop Bits : 1
  51:.\main.c      **** * Parity    : None
  52:.\main.c      **** ******************************************************************************/
  53:.\main.c      **** #include <project.h>
  54:.\main.c      **** #include <math.h>
  55:.\main.c      **** 
  56:.\main.c      **** #define PARTS 1000
  57:.\main.c      **** 
  58:.\main.c      **** int main()
  59:.\main.c      **** {
  29              		.loc 1 59 0
  30              		.cfi_startproc
  31 0000 B0B5     		push	{r4, r5, r7, lr}
  32              		.cfi_def_cfa_offset 16
  33              		.cfi_offset 4, -16
  34              		.cfi_offset 5, -12
  35              		.cfi_offset 7, -8
  36              		.cfi_offset 14, -4
  37 0002 86B0     		sub	sp, sp, #24
  38              		.cfi_def_cfa_offset 40
  39 0004 00AF     		add	r7, sp, #0
  40              		.cfi_def_cfa_register 7
  60:.\main.c      ****     UART_Start();
  41              		.loc 1 60 0
  42 0006 FFF7FEFF 		bl	UART_Start
  61:.\main.c      ****     
  62:.\main.c      ****     int i;
  63:.\main.c      ****     unsigned char sin_val;
  64:.\main.c      ****     double inc_rate;
  65:.\main.c      ****     
  66:.\main.c      ****     inc_rate = M_PI * 2 / PARTS;
  43              		.loc 1 66 0
  44 000a 184C     		ldr	r4, .L5+4
  45 000c 164B     		ldr	r3, .L5
  46 000e BB60     		str	r3, [r7, #8]
  47 0010 FC60     		str	r4, [r7, #12]
  48              	.L4:
ARM GAS  C:\Users\HASHIM~1\AppData\Local\Temp\ccMDxnPs.s 			page 3


  67:.\main.c      ****     
  68:.\main.c      **** 	for(;;)
  69:.\main.c      ****     {
  70:.\main.c      ****       for(i=0;i<PARTS;i++)
  49              		.loc 1 70 0
  50 0012 0023     		mov	r3, #0
  51 0014 7B61     		str	r3, [r7, #20]
  52 0016 21E0     		b	.L2
  53              	.L3:
  71:.\main.c      ****       {
  72:.\main.c      ****         sin_val = (unsigned char)sin(inc_rate * i);
  54              		.loc 1 72 0 discriminator 2
  55 0018 7869     		ldr	r0, [r7, #20]
  56 001a FFF7FEFF 		bl	__aeabi_i2d
  57 001e 031C     		mov	r3, r0
  58 0020 0C1C     		mov	r4, r1
  59 0022 181C     		mov	r0, r3
  60 0024 211C     		mov	r1, r4
  61 0026 BA68     		ldr	r2, [r7, #8]
  62 0028 FB68     		ldr	r3, [r7, #12]
  63 002a FFF7FEFF 		bl	__aeabi_dmul
  64 002e 031C     		mov	r3, r0
  65 0030 0C1C     		mov	r4, r1
  66 0032 181C     		mov	r0, r3
  67 0034 211C     		mov	r1, r4
  68 0036 FFF7FEFF 		bl	sin
  69 003a 031C     		mov	r3, r0
  70 003c 0C1C     		mov	r4, r1
  71 003e FD1D     		add	r5, r7, #7
  72 0040 181C     		mov	r0, r3
  73 0042 211C     		mov	r1, r4
  74 0044 FFF7FEFF 		bl	__aeabi_d2uiz
  75 0048 031C     		mov	r3, r0
  76 004a 2B70     		strb	r3, [r5]
  73:.\main.c      ****         UART_PutChar(sin_val);
  77              		.loc 1 73 0 discriminator 2
  78 004c FB1D     		add	r3, r7, #7
  79 004e 1B78     		ldrb	r3, [r3]
  80 0050 181C     		mov	r0, r3
  81 0052 FFF7FEFF 		bl	UART_PutChar
  70:.\main.c      ****       for(i=0;i<PARTS;i++)
  82              		.loc 1 70 0 discriminator 2
  83 0056 7B69     		ldr	r3, [r7, #20]
  84 0058 0133     		add	r3, r3, #1
  85 005a 7B61     		str	r3, [r7, #20]
  86              	.L2:
  70:.\main.c      ****       for(i=0;i<PARTS;i++)
  87              		.loc 1 70 0 is_stmt 0 discriminator 1
  88 005c 7A69     		ldr	r2, [r7, #20]
  89 005e 044B     		ldr	r3, .L5+8
  90 0060 9A42     		cmp	r2, r3
  91 0062 D9DD     		ble	.L3
  74:.\main.c      ****       }
  75:.\main.c      ****     }
  92              		.loc 1 75 0 is_stmt 1
  93 0064 D5E7     		b	.L4
  94              	.L6:
ARM GAS  C:\Users\HASHIM~1\AppData\Local\Temp\ccMDxnPs.s 			page 4


  95 0066 C046     		.align	3
  96              	.L5:
  97 0068 C3718BB6 		.word	-1232375357
  98 006c 65BC793F 		.word	1064942693
  99 0070 E7030000 		.word	999
 100              		.cfi_endproc
 101              	.LFE33:
 102              		.size	main, .-main
 103 0074 C046C046 		.text
 104              	.Letext0: