ARM GAS  C:\Users\HASHIM~1\AppData\Local\Temp\cceGVRLE.s 			page 1


   1              		.cpu cortex-m0
   2              		.fpu softvfp
   3              		.eabi_attribute 20, 1
   4              		.eabi_attribute 21, 1
   5              		.eabi_attribute 23, 3
   6              		.eabi_attribute 24, 1
   7              		.eabi_attribute 25, 1
   8              		.eabi_attribute 26, 1
   9              		.eabi_attribute 30, 1
  10              		.eabi_attribute 34, 0
  11              		.eabi_attribute 18, 4
  12              		.code	16
  13              		.file	"main.c"
  14              		.text
  15              	.Ltext0:
  16              		.cfi_sections	.debug_frame
  17              		.section	.text.readRE,"ax",%progbits
  18              		.align	2
  19              		.global	readRE
  20              		.code	16
  21              		.thumb_func
  22              		.type	readRE, %function
  23              	readRE:
  24              	.LFB34:
  25              		.file 1 ".\\main.c"
   1:.\main.c      **** /* ========================================
   2:.\main.c      ****  *
   3:.\main.c      ****  * Copyright YOUR COMPANY, THE YEAR
   4:.\main.c      ****  * All Rights Reserved
   5:.\main.c      ****  * UNPUBLISHED, LICENSED SOFTWARE.
   6:.\main.c      ****  *
   7:.\main.c      ****  * CONFIDENTIAL AND PROPRIETARY INFORMATION
   8:.\main.c      ****  * WHICH IS THE PROPERTY OF your company.
   9:.\main.c      ****  *
  10:.\main.c      ****  * ========================================
  11:.\main.c      **** */
  12:.\main.c      **** #include <project.h>
  13:.\main.c      **** #include <stdio.h>
  14:.\main.c      **** 
  15:.\main.c      **** int readRE(void);
  16:.\main.c      **** 
  17:.\main.c      **** int main()
  18:.\main.c      **** {
  19:.\main.c      ****     CyGlobalIntEnable;      /* Enable global interrupts */
  20:.\main.c      ****     UART_Start();
  21:.\main.c      ****     /* Place your initialization/startup code here (e.g. MyInst_Start()) */
  22:.\main.c      ****     
  23:.\main.c      ****     int cnt = 0;
  24:.\main.c      ****     char hoge[20];
  25:.\main.c      ****     
  26:.\main.c      ****     for(;;)
  27:.\main.c      ****     {
  28:.\main.c      ****         cnt += readRE();
  29:.\main.c      ****         sprintf(hoge, "%d\r\n", cnt/2);
  30:.\main.c      ****         UART_UartPutString(hoge);
  31:.\main.c      ****     }
  32:.\main.c      **** }
ARM GAS  C:\Users\HASHIM~1\AppData\Local\Temp\cceGVRLE.s 			page 2


  33:.\main.c      **** 
  34:.\main.c      **** int readRE(void)
  35:.\main.c      **** {
  26              		.loc 1 35 0
  27              		.cfi_startproc
  28 0000 10B5     		push	{r4, lr}
  29              		.cfi_def_cfa_offset 8
  30              		.cfi_offset 4, -8
  31              		.cfi_offset 14, -4
  36:.\main.c      ****   static int RE_states[] = {0,-1,1,0,1,0,0,-1,-1,0,0,1,0,1,-1,0};
  37:.\main.c      ****   static char RE_old = 0;               // 共通変数（値は保存）
  38:.\main.c      ****   char RE_now;
  39:.\main.c      ****   RE_now = Pin_1_Read() * 2 + Pin_2_Read();           // 今回情報の読取 
  32              		.loc 1 39 0
  33 0002 FFF7FEFF 		bl	Pin_1_Read
  34              	.LVL0:
  35 0006 041C     		mov	r4, r0
  36 0008 FFF7FEFF 		bl	Pin_2_Read
  37              	.LVL1:
  38 000c 6400     		lsl	r4, r4, #1
  39 000e 0019     		add	r0, r0, r4
  40              	.LVL2:
  40:.\main.c      ****   RE_old <<= 2;                         // 前回の読取値と
  41              		.loc 1 40 0
  42 0010 064B     		ldr	r3, .L2
  43 0012 1A78     		ldrb	r2, [r3]
  44 0014 9200     		lsl	r2, r2, #2
  45 0016 D2B2     		uxtb	r2, r2
  41:.\main.c      ****   RE_old |= RE_now & 0x03;          // 今回の読取値を組合わせる
  46              		.loc 1 41 0
  47 0018 0321     		mov	r1, #3
  48 001a 0840     		and	r0, r1
  49              	.LVL3:
  50 001c 1043     		orr	r0, r2
  51 001e 1870     		strb	r0, [r3]
  42:.\main.c      ****   return RE_states[RE_old & 0x0F];  // 変化分を戻り値をする
  52              		.loc 1 42 0
  53 0020 0F23     		mov	r3, #15
  54 0022 1840     		and	r0, r3
  55 0024 8000     		lsl	r0, r0, #2
  56 0026 024B     		ldr	r3, .L2+4
  57 0028 C058     		ldr	r0, [r0, r3]
  43:.\main.c      **** }...
  58              		.loc 1 43 0
  59              		@ sp needed
  60 002a 10BD     		pop	{r4, pc}
  61              	.L3:
  62              		.align	2
  63              	.L2:
  64 002c 00000000 		.word	.LANCHOR0
  65 0030 00000000 		.word	.LANCHOR1
  66              		.cfi_endproc
  67              	.LFE34:
  68              		.size	readRE, .-readRE
  69              		.section	.text.main,"ax",%progbits
  70              		.align	2
  71              		.global	main
ARM GAS  C:\Users\HASHIM~1\AppData\Local\Temp\cceGVRLE.s 			page 3


  72              		.code	16
  73              		.thumb_func
  74              		.type	main, %function
  75              	main:
  76              	.LFB33:
  18:.\main.c      **** {
  77              		.loc 1 18 0
  78              		.cfi_startproc
  79 0000 30B5     		push	{r4, r5, lr}
  80              		.cfi_def_cfa_offset 12
  81              		.cfi_offset 4, -12
  82              		.cfi_offset 5, -8
  83              		.cfi_offset 14, -4
  84 0002 87B0     		sub	sp, sp, #28
  85              		.cfi_def_cfa_offset 40
  19:.\main.c      ****     CyGlobalIntEnable;      /* Enable global interrupts */
  86              		.loc 1 19 0
  87              	@ 19 ".\main.c" 1
  88 0004 62B6     		CPSIE   i
  89              	@ 0 "" 2
  20:.\main.c      ****     UART_Start();
  90              		.loc 1 20 0
  91              		.code	16
  92 0006 FFF7FEFF 		bl	UART_Start
  93              	.LVL4:
  23:.\main.c      ****     int cnt = 0;
  94              		.loc 1 23 0
  95 000a 0024     		mov	r4, #0
  29:.\main.c      ****         sprintf(hoge, "%d\r\n", cnt/2);
  96              		.loc 1 29 0
  97 000c 074D     		ldr	r5, .L6
  98              	.LVL5:
  99              	.L5:
  28:.\main.c      ****         cnt += readRE();
 100              		.loc 1 28 0 discriminator 1
 101 000e FFF7FEFF 		bl	readRE
 102              	.LVL6:
 103 0012 2418     		add	r4, r4, r0
 104              	.LVL7:
  29:.\main.c      ****         sprintf(hoge, "%d\r\n", cnt/2);
 105              		.loc 1 29 0 discriminator 1
 106 0014 E20F     		lsr	r2, r4, #31
 107 0016 1219     		add	r2, r2, r4
 108 0018 5210     		asr	r2, r2, #1
 109 001a 01A8     		add	r0, sp, #4
 110 001c 291C     		mov	r1, r5
 111 001e FFF7FEFF 		bl	sprintf
 112              	.LVL8:
  30:.\main.c      ****         UART_UartPutString(hoge);
 113              		.loc 1 30 0 discriminator 1
 114 0022 01A8     		add	r0, sp, #4
 115 0024 FFF7FEFF 		bl	UART_UartPutString
 116              	.LVL9:
 117 0028 F1E7     		b	.L5
 118              	.L7:
 119 002a C046     		.align	2
 120              	.L6:
ARM GAS  C:\Users\HASHIM~1\AppData\Local\Temp\cceGVRLE.s 			page 4


 121 002c 00000000 		.word	.LC2
 122              		.cfi_endproc
 123              	.LFE33:
 124              		.size	main, .-main
 125              		.section	.rodata
 126              		.align	2
 127              		.set	.LANCHOR1,. + 0
 128              		.type	RE_states.7173, %object
 129              		.size	RE_states.7173, 64
 130              	RE_states.7173:
 131 0000 00000000 		.word	0
 132 0004 FFFFFFFF 		.word	-1
 133 0008 01000000 		.word	1
 134 000c 00000000 		.word	0
 135 0010 01000000 		.word	1
 136 0014 00000000 		.word	0
 137 0018 00000000 		.word	0
 138 001c FFFFFFFF 		.word	-1
 139 0020 FFFFFFFF 		.word	-1
 140 0024 00000000 		.word	0
 141 0028 00000000 		.word	0
 142 002c 01000000 		.word	1
 143 0030 00000000 		.word	0
 144 0034 01000000 		.word	1
 145 0038 FFFFFFFF 		.word	-1
 146 003c 00000000 		.word	0
 147              		.section	.rodata.str1.4,"aMS",%progbits,1
 148              		.align	2
 149              	.LC2:
 150 0000 25640D0A 		.ascii	"%d\015\012\000"
 150      00
 151 0005 000000   		.bss
 152              		.set	.LANCHOR0,. + 0
 153              		.type	RE_old.7174, %object
 154              		.size	RE_old.7174, 1
 155              	RE_old.7174:
 156 0000 00       		.space	1
 157              		.text
 158              	.Letext0:
 159              		.file 2 "Generated_Source\\PSoC4/cytypes.h"
 160              		.file 3 "Generated_Source\\PSoC4/Pin_1.h"
 161              		.file 4 "Generated_Source\\PSoC4/Pin_2.h"
 162              		.file 5 "Generated_Source\\PSoC4/UART.h"
 163              		.file 6 "c:\\program files (x86)\\cypress\\psoc creator\\3.2\\psoc creator\\import\\gnu\\arm\\4.8.
 164              		.file 7 "Generated_Source\\PSoC4/UART_SPI_UART.h"